; ModuleID = 'bench/linux/original/tty_baudrate.ll'
source_filename = "bench/linux/original/tty_baudrate.ll"
target datalayout = "e-m:e-p270:32:32-p271:32:32-p272:64:64-i64:64-i128:128-f80:128-n8:16:32:64-S128"
target triple = "x86_64-unknown-linux-gnu"

module asm ".section \22.export_symbol\22,\22a\22 ; __export_symbol_tty_termios_baud_rate: ; .asciz \22\22 ; .asciz \22\22 ; .balign 8 ; .quad tty_termios_baud_rate ; .previous"
module asm ".section \22.export_symbol\22,\22a\22 ; __export_symbol_tty_termios_input_baud_rate: ; .asciz \22\22 ; .asciz \22\22 ; .balign 8 ; .quad tty_termios_input_baud_rate ; .previous"
module asm ".section \22.export_symbol\22,\22a\22 ; __export_symbol_tty_termios_encode_baud_rate: ; .asciz \22GPL\22 ; .asciz \22\22 ; .balign 8 ; .quad tty_termios_encode_baud_rate ; .previous"
module asm ".section \22.export_symbol\22,\22a\22 ; __export_symbol_tty_encode_baud_rate: ; .asciz \22GPL\22 ; .asciz \22\22 ; .balign 8 ; .quad tty_encode_baud_rate ; .previous"

@baud_table = internal unnamed_addr constant [31 x i32] [i32 0, i32 50, i32 75, i32 110, i32 134, i32 150, i32 200, i32 300, i32 600, i32 1200, i32 1800, i32 2400, i32 4800, i32 9600, i32 19200, i32 38400, i32 57600, i32 115200, i32 230400, i32 460800, i32 500000, i32 576000, i32 921600, i32 1000000, i32 1152000, i32 1500000, i32 2000000, i32 2500000, i32 3000000, i32 3500000, i32 4000000], align 16
@__UNIQUE_ID___addressable_tty_termios_baud_rate346 = internal global ptr @tty_termios_baud_rate, section ".discard.addressable", align 8
@__UNIQUE_ID___addressable_tty_termios_input_baud_rate347 = internal global ptr @tty_termios_input_baud_rate, section ".discard.addressable", align 8
@baud_bits = internal unnamed_addr constant [31 x i32] [i32 0, i32 1, i32 2, i32 3, i32 4, i32 5, i32 6, i32 7, i32 8, i32 9, i32 10, i32 11, i32 12, i32 13, i32 14, i32 15, i32 4097, i32 4098, i32 4099, i32 4100, i32 4101, i32 4102, i32 4103, i32 4104, i32 4105, i32 4106, i32 4107, i32 4108, i32 4109, i32 4110, i32 4111], align 16
@__UNIQUE_ID___addressable_tty_termios_encode_baud_rate348 = internal global ptr @tty_termios_encode_baud_rate, section ".discard.addressable", align 8
@__UNIQUE_ID___addressable_tty_encode_baud_rate349 = internal global ptr @tty_encode_baud_rate, section ".discard.addressable", align 8
@llvm.compiler.used = appending global [4 x ptr] [ptr @__UNIQUE_ID___addressable_tty_encode_baud_rate349, ptr @__UNIQUE_ID___addressable_tty_termios_baud_rate346, ptr @__UNIQUE_ID___addressable_tty_termios_encode_baud_rate348, ptr @__UNIQUE_ID___addressable_tty_termios_input_baud_rate347], section "llvm.metadata"

; Function Attrs: fn_ret_thunk_extern mustprogress nofree norecurse nosync nounwind null_pointer_is_valid willreturn memory(argmem: read)
define dso_local i32 @tty_termios_baud_rate(ptr nocapture noundef readonly %0) #0 align 16 {
  %2 = getelementptr inbounds i8, ptr %0, i64 8
  %3 = load i32, ptr %2, align 4
  %4 = and i32 %3, 4111
  %5 = icmp eq i32 %4, 4096
  br i1 %5, label %6, label %8

6:                                                ; preds = %1
  %7 = getelementptr inbounds i8, ptr %0, i64 40
  br label %18

8:                                                ; preds = %1
  %9 = and i32 %3, 4096
  %10 = icmp eq i32 %9, 0
  %11 = and i32 %3, 15
  %12 = add nuw nsw i32 %11, 15
  %13 = select i1 %10, i32 %4, i32 %12
  %14 = icmp ugt i32 %13, 30
  br i1 %14, label %21, label %15

15:                                               ; preds = %8
  %16 = zext nneg i32 %13 to i64
  %17 = getelementptr [31 x i32], ptr @baud_table, i64 0, i64 %16
  br label %18

18:                                               ; preds = %15, %6
  %19 = phi ptr [ %17, %15 ], [ %7, %6 ]
  %20 = load i32, ptr %19, align 4
  br label %21

21:                                               ; preds = %18, %8
  %22 = phi i32 [ 0, %8 ], [ %20, %18 ]
  ret i32 %22
}

; Function Attrs: fn_ret_thunk_extern mustprogress nofree norecurse nosync nounwind null_pointer_is_valid willreturn memory(argmem: read)
define dso_local i32 @tty_termios_input_baud_rate(ptr nocapture noundef readonly %0) #0 align 16 {
  %2 = getelementptr inbounds i8, ptr %0, i64 8
  %3 = load i32, ptr %2, align 4
  %4 = lshr i32 %3, 16
  %5 = and i32 %4, 4111
  switch i32 %5, label %23 [
    i32 0, label %6
    i32 4096, label %21
  ]

6:                                                ; preds = %1
  %7 = and i32 %3, 4111
  %8 = icmp eq i32 %7, 4096
  br i1 %8, label %9, label %11

9:                                                ; preds = %6
  %10 = getelementptr inbounds i8, ptr %0, i64 40
  br label %33

11:                                               ; preds = %6
  %12 = and i32 %3, 4096
  %13 = icmp eq i32 %12, 0
  %14 = and i32 %3, 15
  %15 = add nuw nsw i32 %14, 15
  %16 = select i1 %13, i32 %7, i32 %15
  %17 = icmp ugt i32 %16, 30
  br i1 %17, label %36, label %18

18:                                               ; preds = %11
  %19 = zext nneg i32 %16 to i64
  %20 = getelementptr [31 x i32], ptr @baud_table, i64 0, i64 %19
  br label %33

21:                                               ; preds = %1
  %22 = getelementptr inbounds i8, ptr %0, i64 36
  br label %33

23:                                               ; preds = %1
  %24 = and i32 %3, 268435456
  %25 = icmp eq i32 %24, 0
  %26 = and i32 %4, 15
  %27 = add nuw nsw i32 %26, 15
  %28 = select i1 %25, i32 %5, i32 %27
  %29 = icmp ugt i32 %28, 30
  br i1 %29, label %36, label %30

30:                                               ; preds = %23
  %31 = zext nneg i32 %28 to i64
  %32 = getelementptr [31 x i32], ptr @baud_table, i64 0, i64 %31
  br label %33

33:                                               ; preds = %30, %21, %18, %9
  %34 = phi ptr [ %20, %18 ], [ %10, %9 ], [ %32, %30 ], [ %22, %21 ]
  %35 = load i32, ptr %34, align 4
  br label %36

36:                                               ; preds = %33, %23, %11
  %37 = phi i32 [ 0, %23 ], [ 0, %11 ], [ %35, %33 ]
  ret i32 %37
}

; Function Attrs: fn_ret_thunk_extern nofree norecurse nosync nounwind null_pointer_is_valid memory(argmem: readwrite)
define dso_local void @tty_termios_encode_baud_rate(ptr nocapture noundef %0, i32 noundef %1, i32 noundef %2) #1 align 16 {
  %4 = udiv i32 %1, 50
  %5 = udiv i32 %2, 50
  %6 = icmp eq i32 %2, 0
  %7 = select i1 %6, i32 0, i32 %1
  %8 = getelementptr inbounds i8, ptr %0, i64 36
  store i32 %7, ptr %8, align 4
  %9 = getelementptr inbounds i8, ptr %0, i64 40
  store i32 %2, ptr %9, align 4
  %10 = getelementptr inbounds i8, ptr %0, i64 8
  %11 = load i32, ptr %10, align 4
  %.fr = freeze i32 %11
  %12 = and i32 %.fr, 269418496
  %13 = icmp ne i32 %12, 0
  %14 = and i32 %.fr, 4111
  %15 = icmp eq i32 %14, 4096
  %16 = select i1 %13, i32 %4, i32 0
  %17 = select i1 %15, i32 %16, i32 %4
  %18 = select i1 %15, i32 0, i32 %5
  %19 = icmp eq i32 %12, 268435456
  %20 = select i1 %19, i32 0, i32 %17
  %21 = and i32 %.fr, -269422608
  store i32 %21, ptr %10, align 4
  %22 = sub i32 %2, %18
  %23 = add i32 %18, %2
  %24 = sub i32 %7, %20
  %25 = add i32 %20, %7
  br i1 %13, label %.split.us, label %.split

.split.us:                                        ; preds = %3, %52
  %26 = phi i32 [ %53, %52 ], [ %21, %3 ]
  %27 = phi i64 [ %55, %52 ], [ 0, %3 ]
  %28 = phi i32 [ %54, %52 ], [ -1, %3 ]
  %29 = phi i32 [ %42, %52 ], [ -1, %3 ]
  %30 = getelementptr [31 x i32], ptr @baud_table, i64 0, i64 %27
  %31 = load i32, ptr %30, align 4
  %32 = icmp ugt i32 %22, %31
  %33 = icmp ult i32 %23, %31
  %34 = or i1 %32, %33
  br i1 %34, label %40, label %35

35:                                               ; preds = %.split.us
  %36 = getelementptr [31 x i32], ptr @baud_bits, i64 0, i64 %27
  %37 = load i32, ptr %36, align 4
  %38 = or i32 %26, %37
  store i32 %38, ptr %10, align 4
  %39 = trunc i64 %27 to i32
  br label %40

40:                                               ; preds = %35, %.split.us
  %41 = phi i32 [ %38, %35 ], [ %26, %.split.us ]
  %42 = phi i32 [ %39, %35 ], [ %29, %.split.us ]
  %43 = icmp ugt i32 %24, %31
  %44 = icmp ult i32 %25, %31
  %45 = or i1 %43, %44
  br i1 %45, label %52, label %46

46:                                               ; preds = %40
  %47 = trunc i64 %27 to i32
  %48 = getelementptr [31 x i32], ptr @baud_bits, i64 0, i64 %27
  %49 = load i32, ptr %48, align 4
  %50 = shl i32 %49, 16
  %51 = or i32 %41, %50
  store i32 %51, ptr %10, align 4
  br label %52

52:                                               ; preds = %46, %40
  %53 = phi i32 [ %51, %46 ], [ %41, %40 ]
  %54 = phi i32 [ %47, %46 ], [ %28, %40 ]
  %55 = add nuw nsw i64 %27, 1
  %56 = icmp eq i64 %55, 31
  br i1 %56, label %.split3.us, label %.split.us, !llvm.loop !5

.split:                                           ; preds = %3, %85
  %57 = phi i32 [ %86, %85 ], [ %21, %3 ]
  %58 = phi i64 [ %88, %85 ], [ 0, %3 ]
  %59 = phi i32 [ %87, %85 ], [ -1, %3 ]
  %60 = phi i32 [ %73, %85 ], [ -1, %3 ]
  %61 = getelementptr [31 x i32], ptr @baud_table, i64 0, i64 %58
  %62 = load i32, ptr %61, align 4
  %63 = icmp ugt i32 %22, %62
  %64 = icmp ult i32 %23, %62
  %65 = or i1 %63, %64
  br i1 %65, label %71, label %66

66:                                               ; preds = %.split
  %67 = getelementptr [31 x i32], ptr @baud_bits, i64 0, i64 %58
  %68 = load i32, ptr %67, align 4
  %69 = or i32 %57, %68
  store i32 %69, ptr %10, align 4
  %70 = trunc i64 %58 to i32
  br label %71

71:                                               ; preds = %66, %.split
  %72 = phi i32 [ %69, %66 ], [ %57, %.split ]
  %73 = phi i32 [ %70, %66 ], [ %60, %.split ]
  %74 = icmp ugt i32 %24, %62
  %75 = icmp ult i32 %25, %62
  %76 = or i1 %74, %75
  br i1 %76, label %85, label %77

77:                                               ; preds = %71
  %78 = zext i32 %73 to i64
  %.not = icmp eq i64 %58, %78
  %79 = trunc i64 %58 to i32
  br i1 %.not, label %85, label %80

80:                                               ; preds = %77
  %81 = getelementptr [31 x i32], ptr @baud_bits, i64 0, i64 %58
  %82 = load i32, ptr %81, align 4
  %83 = shl i32 %82, 16
  %84 = or i32 %72, %83
  store i32 %84, ptr %10, align 4
  br label %85

85:                                               ; preds = %80, %77, %71
  %86 = phi i32 [ %84, %80 ], [ %72, %71 ], [ %72, %77 ]
  %87 = phi i32 [ %79, %80 ], [ %59, %71 ], [ %79, %77 ]
  %88 = add nuw nsw i64 %58, 1
  %89 = icmp eq i64 %88, 31
  br i1 %89, label %.split3.us, label %.split, !llvm.loop !5

.split3.us:                                       ; preds = %85, %52
  %90 = phi i32 [ %53, %52 ], [ %86, %85 ]
  %.us-phi = phi i32 [ %54, %52 ], [ %87, %85 ]
  %.us-phi4 = phi i32 [ %42, %52 ], [ %73, %85 ]
  %.not16 = icmp eq i32 %.us-phi4, -1
  %91 = icmp eq i32 %.us-phi, -1
  %92 = icmp ne i32 %7, %2
  %93 = or i1 %92, %13
  %94 = and i1 %93, %91
  %95 = or i1 %.not16, %94
  br i1 %95, label %96, label %100

96:                                               ; preds = %.split3.us
  %97 = or i32 %90, 4096
  %98 = select i1 %.not16, i32 %97, i32 %90
  %99 = or i32 %98, 268435456
  %simplifycfg.merge = select i1 %94, i32 %99, i32 %98
  store i32 %simplifycfg.merge, ptr %10, align 4
  br label %100

100:                                              ; preds = %.split3.us, %96
  ret void
}

; Function Attrs: fn_ret_thunk_extern nofree norecurse nosync nounwind null_pointer_is_valid memory(argmem: readwrite)
define dso_local void @tty_encode_baud_rate(ptr nocapture noundef %0, i32 noundef %1, i32 noundef %2) #1 align 16 {
  %4 = getelementptr inbounds i8, ptr %0, i64 264
  tail call void @tty_termios_encode_baud_rate(ptr noundef %4, i32 noundef %1, i32 noundef %2)
  ret void
}


!llvm.module.flags = !{!0, !1, !2, !3, !4}

!0 = !{i32 1, !"wchar_size", i32 2}
!1 = !{i32 8, !"cf-protection-branch", i32 1}
!2 = !{i32 4, !"function_return_thunk_extern", i32 1}
!3 = !{i32 4, !"indirect_branch_cs_prefix", i32 1}
!4 = !{i32 4, !"SkipRaxSetup", i32 1}
!5 = distinct !{!5, !6, !7}
!6 = !{!"llvm.loop.mustprogress"}
!7 = !{!"llvm.loop.unroll.disable"}
